target datalayout = "e-m:e-p270:32:32-p271:32:32-p272:64:64-i64:64-i128:128-f80:128-n8:16:32:64-S128"
target triple = "x86_64-pc-linux-gnu"

%struct.rb_args_info = type { ptr, ptr, i32, i32, i64, i64, i64, ptr, ptr, ptr, i8 }

; Function Attrs: nounwind sspstrong uwtable
define internal zeroext i1 @args_info_empty_p(ptr noundef %0) #0 {
  %2 = alloca i1, align 1
  %3 = alloca ptr, align 8
  store ptr %0, ptr %3, align 8, !tbaa !528
  %4 = load ptr, ptr %3, align 8, !tbaa !528
  %5 = getelementptr inbounds nuw %struct.rb_args_info, ptr %4, i32 0, i32 2
  %6 = load i32, ptr %5, align 8, !tbaa !530
  %7 = icmp ne i32 %6, 0
  br i1 %7, label %8, label %9

8:                                                ; preds = %1
  store i1 false, ptr %2, align 1
  br label %46

9:                                                ; preds = %1
  %10 = load ptr, ptr %3, align 8, !tbaa !528
  %11 = getelementptr inbounds nuw %struct.rb_args_info, ptr %10, i32 0, i32 3
  %12 = load i32, ptr %11, align 4, !tbaa !534
  %13 = icmp ne i32 %12, 0
  br i1 %13, label %14, label %15

14:                                               ; preds = %9
  store i1 false, ptr %2, align 1
  br label %46

15:                                               ; preds = %9
  %16 = load ptr, ptr %3, align 8, !tbaa !528
  %17 = getelementptr inbounds nuw %struct.rb_args_info, ptr %16, i32 0, i32 5
  %18 = load i64, ptr %17, align 8, !tbaa !537
  %19 = icmp ne i64 %18, 0
  br i1 %19, label %20, label %21

20:                                               ; preds = %15
  store i1 false, ptr %2, align 1
  br label %46

21:                                               ; preds = %15
  %22 = load ptr, ptr %3, align 8, !tbaa !528
  %23 = getelementptr inbounds nuw %struct.rb_args_info, ptr %22, i32 0, i32 9
  %24 = load ptr, ptr %23, align 8, !tbaa !538
  %25 = icmp ne ptr %24, null
  br i1 %25, label %26, label %27

26:                                               ; preds = %21
  store i1 false, ptr %2, align 1
  br label %46

27:                                               ; preds = %21
  %28 = load ptr, ptr %3, align 8, !tbaa !528
  %29 = getelementptr inbounds nuw %struct.rb_args_info, ptr %28, i32 0, i32 6
  %30 = load i64, ptr %29, align 8, !tbaa !540
  %31 = icmp ne i64 %30, 0
  br i1 %31, label %32, label %33

32:                                               ; preds = %27
  store i1 false, ptr %2, align 1
  br label %46

33:                                               ; preds = %27
  %34 = load ptr, ptr %3, align 8, !tbaa !528
  %35 = getelementptr inbounds nuw %struct.rb_args_info, ptr %34, i32 0, i32 7
  %36 = load ptr, ptr %35, align 8, !tbaa !541
  %37 = icmp ne ptr %36, null
  br i1 %37, label %38, label %39

38:                                               ; preds = %33
  store i1 false, ptr %2, align 1
  br label %46

39:                                               ; preds = %33
  %40 = load ptr, ptr %3, align 8, !tbaa !528
  %41 = getelementptr inbounds nuw %struct.rb_args_info, ptr %40, i32 0, i32 8
  %42 = load ptr, ptr %41, align 8, !tbaa !550
  %43 = icmp ne ptr %42, null
  br i1 %43, label %44, label %45

44:                                               ; preds = %39
  store i1 false, ptr %2, align 1
  br label %46

45:                                               ; preds = %39
  store i1 true, ptr %2, align 1
  br label %46

46:                                               ; preds = %45, %44, %38, %32, %26, %20, %14, %8
  %47 = load i1, ptr %2, align 1
  ret i1 %47
}