; Function Attrs: mustprogress nofree norecurse nosync nounwind sspstrong willreturn memory(argmem: read) uwtable
define internal fastcc zeroext i1 @args_info_empty_p(ptr noundef readonly captures(none) %0) unnamed_addr #11 {
  %2 = getelementptr inbounds nuw i8, ptr %0, i64 16
  %3 = load i32, ptr %2, align 8, !tbaa !380
  %.not = icmp eq i32 %3, 0
  br i1 %.not, label %4, label %22

4:                                                ; preds = %1
  %5 = getelementptr inbounds nuw i8, ptr %0, i64 20
  %6 = load i32, ptr %5, align 4, !tbaa !382
  %.not8 = icmp eq i32 %6, 0
  br i1 %.not8, label %7, label %22

7:                                                ; preds = %4
  %8 = getelementptr inbounds nuw i8, ptr %0, i64 32
  %9 = load i64, ptr %8, align 8, !tbaa !146
  %.not9 = icmp eq i64 %9, 0
  br i1 %.not9, label %10, label %22

10:                                               ; preds = %7
  %11 = getelementptr inbounds nuw i8, ptr %0, i64 64
  %12 = load ptr, ptr %11, align 8, !tbaa !149
  %.not10 = icmp eq ptr %12, null
  br i1 %.not10, label %13, label %22

13:                                               ; preds = %10
  %14 = getelementptr inbounds nuw i8, ptr %0, i64 40
  %15 = load i64, ptr %14, align 8, !tbaa !385
  %.not11 = icmp eq i64 %15, 0
  br i1 %.not11, label %16, label %22

16:                                               ; preds = %13
  %17 = getelementptr inbounds nuw i8, ptr %0, i64 48
  %18 = load ptr, ptr %17, align 8, !tbaa !386
  %.not12 = icmp eq ptr %18, null
  br i1 %.not12, label %19, label %22

19:                                               ; preds = %16
  %20 = getelementptr inbounds nuw i8, ptr %0, i64 56
  %21 = load ptr, ptr %20, align 8, !tbaa !392
  %.not13 = icmp eq ptr %21, null
  br label %22

22:                                               ; preds = %19, %16, %13, %10, %7, %4, %1
  %.0 = phi i1 [ false, %1 ], [ false, %4 ], [ false, %7 ], [ false, %10 ], [ false, %13 ], [ false, %16 ], [ %.not13, %19 ]
  ret i1 %.0
}